target datalayout = "e-m:e-p270:32:32-p271:32:32-p272:64:64-i64:64-i128:128-f80:128-n8:16:32:64-S128"
target triple = "x86_64-pc-linux-gnu"

%"class.std::__cxx11::basic_string" = type { %"struct.std::__cxx11::basic_string<char>::_Alloc_hider", i64, %union.anon }
%"struct.std::__cxx11::basic_string<char>::_Alloc_hider" = type { ptr }
%union.anon = type { i64, [8 x i8] }
%class.aiVector3t = type { float, float, float }
%"struct.Assimp::D3DS::Node" = type { ptr, %"class.std::vector.45", %"class.std::__cxx11::basic_string", i32, %"class.std::__cxx11::basic_string", i16, i16, %"class.std::vector.50", %"class.std::vector.55", %"class.std::vector.55", %"class.std::vector.55", %"class.std::vector.60", %class.aiVector3t, i32 }
%"class.std::vector.45" = type { %"struct.std::_Vector_base.46" }
%"struct.std::_Vector_base.46" = type { %"struct.std::_Vector_base<Assimp::D3DS::Node *, std::allocator<Assimp::D3DS::Node *>>::_Vector_impl" }
%"struct.std::_Vector_base<Assimp::D3DS::Node *, std::allocator<Assimp::D3DS::Node *>>::_Vector_impl" = type { %"struct.std::_Vector_base<Assimp::D3DS::Node *, std::allocator<Assimp::D3DS::Node *>>::_Vector_impl_data" }
%"struct.std::_Vector_base<Assimp::D3DS::Node *, std::allocator<Assimp::D3DS::Node *>>::_Vector_impl_data" = type { ptr, ptr, ptr }
%"class.std::vector.50" = type { %"struct.std::_Vector_base.51" }
%"struct.std::_Vector_base.51" = type { %"struct.std::_Vector_base<aiQuatKey, std::allocator<aiQuatKey>>::_Vector_impl" }
%"struct.std::_Vector_base<aiQuatKey, std::allocator<aiQuatKey>>::_Vector_impl" = type { %"struct.std::_Vector_base<aiQuatKey, std::allocator<aiQuatKey>>::_Vector_impl_data" }
%"struct.std::_Vector_base<aiQuatKey, std::allocator<aiQuatKey>>::_Vector_impl_data" = type { ptr, ptr, ptr }
%"class.std::vector.55" = type { %"struct.std::_Vector_base.56" }
%"struct.std::_Vector_base.56" = type { %"struct.std::_Vector_base<aiVectorKey, std::allocator<aiVectorKey>>::_Vector_impl" }
%"struct.std::_Vector_base<aiVectorKey, std::allocator<aiVectorKey>>::_Vector_impl" = type { %"struct.std::_Vector_base<aiVectorKey, std::allocator<aiVectorKey>>::_Vector_impl_data" }
%"struct.std::_Vector_base<aiVectorKey, std::allocator<aiVectorKey>>::_Vector_impl_data" = type { ptr, ptr, ptr }
%"class.std::vector.60" = type { %"struct.std::_Vector_base.61" }
%"struct.std::_Vector_base.61" = type { %"struct.std::_Vector_base<Assimp::D3DS::aiFloatKey, std::allocator<Assimp::D3DS::aiFloatKey>>::_Vector_impl" }
%"struct.std::_Vector_base<Assimp::D3DS::aiFloatKey, std::allocator<Assimp::D3DS::aiFloatKey>>::_Vector_impl" = type { %"struct.std::_Vector_base<Assimp::D3DS::aiFloatKey, std::allocator<Assimp::D3DS::aiFloatKey>>::_Vector_impl_data" }
%"struct.std::_Vector_base<Assimp::D3DS::aiFloatKey, std::allocator<Assimp::D3DS::aiFloatKey>>::_Vector_impl_data" = type { ptr, ptr, ptr }

; Function Attrs: mustprogress nounwind uwtable
define linkonce_odr hidden noundef nonnull align 8 dereferenceable(8) ptr @_ZNSt6vectorIPN6Assimp4D3DS4NodeESaIS3_EEixEm(ptr noundef nonnull align 8 dereferenceable(24) %0, i64 noundef %1) #2 comdat align 2 {
  %3 = alloca ptr, align 8
  %4 = alloca i64, align 8
  store ptr %0, ptr %3, align 8
  store i64 %1, ptr %4, align 8
  %5 = load ptr, ptr %3, align 8
  %6 = getelementptr inbounds nuw %"struct.std::_Vector_base.46", ptr %5, i32 0, i32 0
  %7 = getelementptr inbounds nuw %"struct.std::_Vector_base<Assimp::D3DS::Node *, std::allocator<Assimp::D3DS::Node *>>::_Vector_impl_data", ptr %6, i32 0, i32 0
  %8 = load ptr, ptr %7, align 8
  %9 = load i64, ptr %4, align 8
  %10 = getelementptr inbounds nuw ptr, ptr %8, i64 %9
  ret ptr %10
}

; Function Attrs: mustprogress nounwind uwtable
define linkonce_odr hidden noundef i64 @_ZNKSt6vectorIPN6Assimp4D3DS4NodeESaIS3_EE4sizeEv(ptr noundef nonnull align 8 dereferenceable(24) %0) #2 comdat align 2 {
  %2 = alloca ptr, align 8
  store ptr %0, ptr %2, align 8
  %3 = load ptr, ptr %2, align 8
  %4 = getelementptr inbounds nuw %"struct.std::_Vector_base.46", ptr %3, i32 0, i32 0
  %5 = getelementptr inbounds nuw %"struct.std::_Vector_base<Assimp::D3DS::Node *, std::allocator<Assimp::D3DS::Node *>>::_Vector_impl_data", ptr %4, i32 0, i32 1
  %6 = load ptr, ptr %5, align 8
  %7 = getelementptr inbounds nuw %"struct.std::_Vector_base.46", ptr %3, i32 0, i32 0
  %8 = getelementptr inbounds nuw %"struct.std::_Vector_base<Assimp::D3DS::Node *, std::allocator<Assimp::D3DS::Node *>>::_Vector_impl_data", ptr %7, i32 0, i32 0
  %9 = load ptr, ptr %8, align 8
  %10 = ptrtoint ptr %6 to i64
  %11 = ptrtoint ptr %9 to i64
  %12 = sub i64 %10, %11
  %13 = sdiv exact i64 %12, 8
  ret i64 %13
}

; Function Attrs: mustprogress nounwind uwtable
define linkonce_odr hidden noundef i64 @_ZNKSt6vectorIN6Assimp4D3DS10aiFloatKeyESaIS2_EE4sizeEv(ptr noundef nonnull align 8 dereferenceable(24) %0) #2 comdat align 2 {
  %2 = alloca ptr, align 8
  store ptr %0, ptr %2, align 8
  %3 = load ptr, ptr %2, align 8
  %4 = getelementptr inbounds nuw %"struct.std::_Vector_base.61", ptr %3, i32 0, i32 0
  %5 = getelementptr inbounds nuw %"struct.std::_Vector_base<Assimp::D3DS::aiFloatKey, std::allocator<Assimp::D3DS::aiFloatKey>>::_Vector_impl_data", ptr %4, i32 0, i32 1
  %6 = load ptr, ptr %5, align 8
  %7 = getelementptr inbounds nuw %"struct.std::_Vector_base.61", ptr %3, i32 0, i32 0
  %8 = getelementptr inbounds nuw %"struct.std::_Vector_base<Assimp::D3DS::aiFloatKey, std::allocator<Assimp::D3DS::aiFloatKey>>::_Vector_impl_data", ptr %7, i32 0, i32 0
  %9 = load ptr, ptr %8, align 8
  %10 = ptrtoint ptr %6 to i64
  %11 = ptrtoint ptr %9 to i64
  %12 = sub i64 %10, %11
  %13 = sdiv exact i64 %12, 16
  ret i64 %13
}

; Function Attrs: mustprogress nounwind uwtable
define linkonce_odr hidden noundef i64 @_ZNKSt6vectorI9aiQuatKeySaIS0_EE4sizeEv(ptr noundef nonnull align 8 dereferenceable(24) %0) #2 comdat align 2 {
  %2 = alloca ptr, align 8
  store ptr %0, ptr %2, align 8
  %3 = load ptr, ptr %2, align 8
  %4 = getelementptr inbounds nuw %"struct.std::_Vector_base.51", ptr %3, i32 0, i32 0
  %5 = getelementptr inbounds nuw %"struct.std::_Vector_base<aiQuatKey, std::allocator<aiQuatKey>>::_Vector_impl_data", ptr %4, i32 0, i32 1
  %6 = load ptr, ptr %5, align 8
  %7 = getelementptr inbounds nuw %"struct.std::_Vector_base.51", ptr %3, i32 0, i32 0
  %8 = getelementptr inbounds nuw %"struct.std::_Vector_base<aiQuatKey, std::allocator<aiQuatKey>>::_Vector_impl_data", ptr %7, i32 0, i32 0
  %9 = load ptr, ptr %8, align 8
  %10 = ptrtoint ptr %6 to i64
  %11 = ptrtoint ptr %9 to i64
  %12 = sub i64 %10, %11
  %13 = sdiv exact i64 %12, 32
  ret i64 %13
}

; Function Attrs: mustprogress nounwind uwtable
define linkonce_odr hidden noundef i64 @_ZNKSt6vectorI11aiVectorKeySaIS0_EE4sizeEv(ptr noundef nonnull align 8 dereferenceable(24) %0) #2 comdat align 2 {
  %2 = alloca ptr, align 8
  store ptr %0, ptr %2, align 8
  %3 = load ptr, ptr %2, align 8
  %4 = getelementptr inbounds nuw %"struct.std::_Vector_base.56", ptr %3, i32 0, i32 0
  %5 = getelementptr inbounds nuw %"struct.std::_Vector_base<aiVectorKey, std::allocator<aiVectorKey>>::_Vector_impl_data", ptr %4, i32 0, i32 1
  %6 = load ptr, ptr %5, align 8
  %7 = getelementptr inbounds nuw %"struct.std::_Vector_base.56", ptr %3, i32 0, i32 0
  %8 = getelementptr inbounds nuw %"struct.std::_Vector_base<aiVectorKey, std::allocator<aiVectorKey>>::_Vector_impl_data", ptr %7, i32 0, i32 0
  %9 = load ptr, ptr %8, align 8
  %10 = ptrtoint ptr %6 to i64
  %11 = ptrtoint ptr %9 to i64
  %12 = sub i64 %10, %11
  %13 = sdiv exact i64 %12, 24
  ret i64 %13
}

; Function Attrs: mustprogress uwtable
define hidden void @_ZN6Assimp11CountTracksEPNS_4D3DS4NodeERj(ptr noundef %0, ptr noundef nonnull align 4 dereferenceable(4) %1) #0 {
  %3 = alloca ptr, align 8
  %4 = alloca ptr, align 8
  %5 = alloca i32, align 4
  store ptr %0, ptr %3, align 8
  store ptr %1, ptr %4, align 8
  %6 = load ptr, ptr %3, align 8
  %7 = getelementptr inbounds nuw %"struct.Assimp::D3DS::Node", ptr %6, i32 0, i32 8
  %8 = call noundef i64 @_ZNKSt6vectorI11aiVectorKeySaIS0_EE4sizeEv(ptr noundef nonnull align 8 dereferenceable(24) %7) #18
  %9 = icmp ugt i64 %8, 1
  br i1 %9, label %30, label %10

10:                                               ; preds = %2
  %11 = load ptr, ptr %3, align 8
  %12 = getelementptr inbounds nuw %"struct.Assimp::D3DS::Node", ptr %11, i32 0, i32 7
  %13 = call noundef i64 @_ZNKSt6vectorI9aiQuatKeySaIS0_EE4sizeEv(ptr noundef nonnull align 8 dereferenceable(24) %12) #18
  %14 = icmp ugt i64 %13, 1
  br i1 %14, label %30, label %15

15:                                               ; preds = %10
  %16 = load ptr, ptr %3, align 8
  %17 = getelementptr inbounds nuw %"struct.Assimp::D3DS::Node", ptr %16, i32 0, i32 9
  %18 = call noundef i64 @_ZNKSt6vectorI11aiVectorKeySaIS0_EE4sizeEv(ptr noundef nonnull align 8 dereferenceable(24) %17) #18
  %19 = icmp ugt i64 %18, 1
  br i1 %19, label %30, label %20

20:                                               ; preds = %15
  %21 = load ptr, ptr %3, align 8
  %22 = getelementptr inbounds nuw %"struct.Assimp::D3DS::Node", ptr %21, i32 0, i32 11
  %23 = call noundef i64 @_ZNKSt6vectorIN6Assimp4D3DS10aiFloatKeyESaIS2_EE4sizeEv(ptr noundef nonnull align 8 dereferenceable(24) %22) #18
  %24 = icmp ugt i64 %23, 1
  br i1 %24, label %30, label %25

25:                                               ; preds = %20
  %26 = load ptr, ptr %3, align 8
  %27 = getelementptr inbounds nuw %"struct.Assimp::D3DS::Node", ptr %26, i32 0, i32 10
  %28 = call noundef i64 @_ZNKSt6vectorI11aiVectorKeySaIS0_EE4sizeEv(ptr noundef nonnull align 8 dereferenceable(24) %27) #18
  %29 = icmp ugt i64 %28, 1
  br i1 %29, label %30, label %43

30:                                               ; preds = %25, %20, %15, %10, %2
  %31 = load ptr, ptr %4, align 8
  %32 = load i32, ptr %31, align 4
  %33 = add i32 %32, 1
  store i32 %33, ptr %31, align 4
  %34 = load ptr, ptr %3, align 8
  %35 = getelementptr inbounds nuw %"struct.Assimp::D3DS::Node", ptr %34, i32 0, i32 10
  %36 = call noundef i64 @_ZNKSt6vectorI11aiVectorKeySaIS0_EE4sizeEv(ptr noundef nonnull align 8 dereferenceable(24) %35) #18
  %37 = icmp ugt i64 %36, 1
  br i1 %37, label %38, label %42

38:                                               ; preds = %30
  %39 = load ptr, ptr %4, align 8
  %40 = load i32, ptr %39, align 4
  %41 = add i32 %40, 1
  store i32 %41, ptr %39, align 4
  br label %42

42:                                               ; preds = %38, %30
  br label %43

43:                                               ; preds = %42, %25
  call void @llvm.lifetime.start.p0(i64 4, ptr %5) #18
  store i32 0, ptr %5, align 4
  br label %44

44:                                               ; preds = %60, %43
  %45 = load i32, ptr %5, align 4
  %46 = zext i32 %45 to i64
  %47 = load ptr, ptr %3, align 8
  %48 = getelementptr inbounds nuw %"struct.Assimp::D3DS::Node", ptr %47, i32 0, i32 1
  %49 = call noundef i64 @_ZNKSt6vectorIPN6Assimp4D3DS4NodeESaIS3_EE4sizeEv(ptr noundef nonnull align 8 dereferenceable(24) %48) #18
  %50 = icmp ult i64 %46, %49
  br i1 %50, label %52, label %51

51:                                               ; preds = %44
  call void @llvm.lifetime.end.p0(i64 4, ptr %5) #18
  br label %63

52:                                               ; preds = %44
  %53 = load ptr, ptr %3, align 8
  %54 = getelementptr inbounds nuw %"struct.Assimp::D3DS::Node", ptr %53, i32 0, i32 1
  %55 = load i32, ptr %5, align 4
  %56 = zext i32 %55 to i64
  %57 = call noundef nonnull align 8 dereferenceable(8) ptr @_ZNSt6vectorIPN6Assimp4D3DS4NodeESaIS3_EEixEm(ptr noundef nonnull align 8 dereferenceable(24) %54, i64 noundef %56) #18
  %58 = load ptr, ptr %57, align 8
  %59 = load ptr, ptr %4, align 8
  call void @_ZN6Assimp11CountTracksEPNS_4D3DS4NodeERj(ptr noundef %58, ptr noundef nonnull align 4 dereferenceable(4) %59)
  br label %60

60:                                               ; preds = %52
  %61 = load i32, ptr %5, align 4
  %62 = add i32 %61, 1
  store i32 %62, ptr %5, align 4
  br label %44, !llvm.loop !30

63:                                               ; preds = %51
  ret void
}