; Function Attrs: mustprogress nofree nosync nounwind memory(readwrite, inaccessiblemem: none) uwtable
define hidden void @_ZN6Assimp11CountTracksEPNS_4D3DS4NodeERj(ptr noundef readonly captures(none) %0, ptr noundef nonnull align 4 captures(none) dereferenceable(4) %1) local_unnamed_addr #14 {
  %3 = getelementptr inbounds nuw i8, ptr %0, i64 136
  %4 = getelementptr inbounds nuw i8, ptr %0, i64 144
  %5 = load ptr, ptr %4, align 8
  %6 = load ptr, ptr %3, align 8
  %7 = ptrtoint ptr %5 to i64
  %8 = ptrtoint ptr %6 to i64
  %9 = sub i64 %7, %8
  %10 = sdiv exact i64 %9, 24
  %11 = icmp ugt i64 %10, 1
  br i1 %11, label %50, label %12

12:                                               ; preds = %2
  %13 = getelementptr inbounds nuw i8, ptr %0, i64 112
  %14 = getelementptr inbounds nuw i8, ptr %0, i64 120
  %15 = load ptr, ptr %14, align 8
  %16 = load ptr, ptr %13, align 8
  %17 = ptrtoint ptr %15 to i64
  %18 = ptrtoint ptr %16 to i64
  %19 = sub i64 %17, %18
  %20 = icmp ugt i64 %19, 32
  br i1 %20, label %50, label %21

21:                                               ; preds = %12
  %22 = getelementptr inbounds nuw i8, ptr %0, i64 160
  %23 = getelementptr inbounds nuw i8, ptr %0, i64 168
  %24 = load ptr, ptr %23, align 8
  %25 = load ptr, ptr %22, align 8
  %26 = ptrtoint ptr %24 to i64
  %27 = ptrtoint ptr %25 to i64
  %28 = sub i64 %26, %27
  %29 = sdiv exact i64 %28, 24
  %30 = icmp ugt i64 %29, 1
  br i1 %30, label %50, label %31

31:                                               ; preds = %21
  %32 = getelementptr inbounds nuw i8, ptr %0, i64 208
  %33 = getelementptr inbounds nuw i8, ptr %0, i64 216
  %34 = load ptr, ptr %33, align 8
  %35 = load ptr, ptr %32, align 8
  %36 = ptrtoint ptr %34 to i64
  %37 = ptrtoint ptr %35 to i64
  %38 = sub i64 %36, %37
  %39 = icmp ugt i64 %38, 16
  br i1 %39, label %50, label %40

40:                                               ; preds = %31
  %41 = getelementptr inbounds nuw i8, ptr %0, i64 184
  %42 = getelementptr inbounds nuw i8, ptr %0, i64 192
  %43 = load ptr, ptr %42, align 8
  %44 = load ptr, ptr %41, align 8
  %45 = ptrtoint ptr %43 to i64
  %46 = ptrtoint ptr %44 to i64
  %47 = sub i64 %45, %46
  %48 = sdiv exact i64 %47, 24
  %49 = icmp ugt i64 %48, 1
  br i1 %49, label %50, label %64

50:                                               ; preds = %40, %31, %21, %12, %2
  %51 = load i32, ptr %1, align 4
  %52 = add i32 %51, 1
  store i32 %52, ptr %1, align 4
  %53 = getelementptr inbounds nuw i8, ptr %0, i64 184
  %54 = getelementptr inbounds nuw i8, ptr %0, i64 192
  %55 = load ptr, ptr %54, align 8
  %56 = load ptr, ptr %53, align 8
  %57 = ptrtoint ptr %55 to i64
  %58 = ptrtoint ptr %56 to i64
  %59 = sub i64 %57, %58
  %60 = sdiv exact i64 %59, 24
  %61 = icmp ugt i64 %60, 1
  br i1 %61, label %62, label %64

62:                                               ; preds = %50
  %63 = add i32 %51, 2
  store i32 %63, ptr %1, align 4
  br label %64

64:                                               ; preds = %50, %62, %40
  %65 = getelementptr inbounds nuw i8, ptr %0, i64 8
  %66 = getelementptr inbounds nuw i8, ptr %0, i64 16
  %67 = load ptr, ptr %66, align 8
  %68 = load ptr, ptr %65, align 8
  %.not = icmp eq ptr %67, %68
  br i1 %.not, label %._crit_edge, label %.lr.ph

._crit_edge:                                      ; preds = %.lr.ph, %64
  ret void

.lr.ph:                                           ; preds = %64, %.lr.ph
  %69 = phi ptr [ %76, %.lr.ph ], [ %68, %64 ]
  %70 = phi i64 [ %74, %.lr.ph ], [ 0, %64 ]
  %.014 = phi i32 [ %73, %.lr.ph ], [ 0, %64 ]
  %71 = getelementptr inbounds nuw ptr, ptr %69, i64 %70
  %72 = load ptr, ptr %71, align 8
  tail call void @_ZN6Assimp11CountTracksEPNS_4D3DS4NodeERj(ptr noundef %72, ptr noundef nonnull align 4 dereferenceable(4) %1)
  %73 = add i32 %.014, 1
  %74 = zext i32 %73 to i64
  %75 = load ptr, ptr %66, align 8
  %76 = load ptr, ptr %65, align 8
  %77 = ptrtoint ptr %75 to i64
  %78 = ptrtoint ptr %76 to i64
  %79 = sub i64 %77, %78
  %80 = ashr exact i64 %79, 3
  %81 = icmp ugt i64 %80, %74
  br i1 %81, label %.lr.ph, label %._crit_edge, !llvm.loop !38
}